MODULE Linux mips 6E72E2F1A5F59AB3D51356FDFE394D490 crash_example
FUNC 80a8 9c 0 google_breakpad::MinidumpDescriptor::MinidumpDescriptor
FUNC 815c a0 0 DumpCallback
FUNC 81fc 2c 0 Leaf
FUNC 8228 58 0 blaTest
FUNC 8280 40 0 Crash
FUNC 831c f4 0 main
PUBLIC 831c 0 main
STACK CFI INIT 8228 58 .cfa: $sp 0 + .ra: $ra
STACK CFI 822c .cfa: $sp 32 +
STACK CFI 8234 $gp: .cfa -16 + ^ .ra: .cfa -8 + ^
STACK CFI 827c $gp: $gp .cfa: $sp 0 + .ra: .ra
STACK CFI INIT 8280 40 .cfa: $sp 0 + .ra: $ra
STACK CFI 8284 .cfa: $sp 32 +
STACK CFI 828c $gp: .cfa -16 + ^ .ra: .cfa -8 + ^
STACK CFI 82bc $gp: $gp .cfa: $sp 0 + .ra: .ra
STACK CFI INIT 831c f4 .cfa: $sp 0 + .ra: $ra
STACK CFI 8320 .cfa: $sp 352 +
STACK CFI 832c $gp: .cfa -16 + ^ $s0: .cfa -24 + ^ .ra: .cfa -8 + ^
STACK CFI 840c $gp: $gp $s0: $s0 .cfa: $sp 0 + .ra: .ra
