MODULE Linux mips 8F36148CC4647A8116CAF2A25F591F570 crash_example
FUNC 2ea4 b4 0 google_breakpad::MinidumpDescriptor::MinidumpDescriptor
FUNC 2f6c c4 0 DumpCallback
FUNC 3030 28 0 Leaf
FUNC 3058 60 0 blaTest
FUNC 30b8 48 0 Crash
FUNC 316c 120 0 main
PUBLIC 316c 0 main
STACK CFI INIT 30b8 48 .cfa: $sp 39792944 + .ra: $ra
STACK CFI 30c8 .cfa: $sp 40 +
STACK CFI 30d0 .ra: .cfa -4 + ^
STACK CFI 30f8 .cfa: $sp 0 + .ra: .ra
